target datalayout = "e-m:e-p270:32:32-p271:32:32-p272:64:64-i64:64-i128:128-f80:128-n8:16:32:64-S128"
target triple = "x86_64-pc-linux-gnu"

@.str = private unnamed_addr constant [122 x i8] c"generated/home/dtcxzyw/WorkSpace/Projects/compilers/llvm-opt-benchmark/bench/open3d/Open3D/cpp/open3d/core/TensorList.cpp\00", align 1
@__PRETTY_FUNCTION__._ZN6open3d4core10TensorList18ComputeReserveSizeEl = private unnamed_addr constant [69 x i8] c"static int64_t open3d::core::TensorList::ComputeReserveSize(int64_t)\00", align 1
@.str.59 = private unnamed_addr constant [46 x i8] c"Negative tensorlist size {} is not supported.\00", align 1
@.str.60 = private unnamed_addr constant [47 x i8] c"Too large tensorlist size {} is not supported.\00", align 1

; Function Attrs: mustprogress ssp uwtable
define noundef i64 @_ZN6open3d4core10TensorList18ComputeReserveSizeEl(i64 noundef %0) #0 align 2 {
  %2 = alloca i64, align 8
  %3 = alloca i64, align 8
  %4 = alloca i64, align 8
  %5 = alloca i32, align 4
  %6 = alloca i32, align 4
  store i64 %0, ptr %3, align 8, !tbaa !11
  %7 = load i64, ptr %3, align 8, !tbaa !11
  %8 = icmp slt i64 %7, 0
  br i1 %8, label %9, label %10

9:                                                ; preds = %1
  call void @_ZN6open3d7utility6Logger9LogError_IJRlEEEvPKciS5_S5_DpOT_(ptr noundef @.str, i32 noundef 158, ptr noundef @__PRETTY_FUNCTION__._ZN6open3d4core10TensorList18ComputeReserveSizeEl, ptr noundef @.str.59, ptr noundef nonnull align 8 dereferenceable(8) %3) #29
  unreachable

10:                                               ; preds = %1
  call void @llvm.lifetime.start.p0(i64 8, ptr %4) #28
  store i64 1, ptr %4, align 8, !tbaa !11
  %11 = load i64, ptr %3, align 8, !tbaa !11
  %12 = load i64, ptr %4, align 8, !tbaa !11
  %13 = shl i64 %12, 61
  %14 = icmp sgt i64 %11, %13
  br i1 %14, label %15, label %16

15:                                               ; preds = %10
  call void @_ZN6open3d7utility6Logger9LogError_IJRlEEEvPKciS5_S5_DpOT_(ptr noundef @.str, i32 noundef 163, ptr noundef @__PRETTY_FUNCTION__._ZN6open3d4core10TensorList18ComputeReserveSizeEl, ptr noundef @.str.60, ptr noundef nonnull align 8 dereferenceable(8) %3) #29
  unreachable

16:                                               ; preds = %10
  call void @llvm.lifetime.start.p0(i64 4, ptr %5) #28
  store i32 63, ptr %5, align 4, !tbaa !28
  br label %17

17:                                               ; preds = %49, %16
  %18 = load i32, ptr %5, align 4, !tbaa !28
  %19 = icmp sge i32 %18, 0
  br i1 %19, label %21, label %20

20:                                               ; preds = %17
  store i32 2, ptr %6, align 4
  br label %52

21:                                               ; preds = %17
  %22 = load i64, ptr %4, align 8, !tbaa !11
  %23 = load i32, ptr %5, align 4, !tbaa !28
  %24 = zext i32 %23 to i64
  %25 = shl i64 %22, %24
  %26 = load i64, ptr %3, align 8, !tbaa !11
  %27 = and i64 %25, %26
  %28 = icmp sgt i64 %27, 0
  br i1 %28, label %29, label %48

29:                                               ; preds = %21
  %30 = load i64, ptr %3, align 8, !tbaa !11
  %31 = load i64, ptr %4, align 8, !tbaa !11
  %32 = load i32, ptr %5, align 4, !tbaa !28
  %33 = zext i32 %32 to i64
  %34 = shl i64 %31, %33
  %35 = icmp eq i64 %30, %34
  br i1 %35, label %36, label %42

36:                                               ; preds = %29
  %37 = load i64, ptr %4, align 8, !tbaa !11
  %38 = load i32, ptr %5, align 4, !tbaa !28
  %39 = add nsw i32 %38, 1
  %40 = zext i32 %39 to i64
  %41 = shl i64 %37, %40
  store i64 %41, ptr %2, align 8
  store i32 1, ptr %6, align 4
  br label %52

42:                                               ; preds = %29
  %43 = load i64, ptr %4, align 8, !tbaa !11
  %44 = load i32, ptr %5, align 4, !tbaa !28
  %45 = add nsw i32 %44, 2
  %46 = zext i32 %45 to i64
  %47 = shl i64 %43, %46
  store i64 %47, ptr %2, align 8
  store i32 1, ptr %6, align 4
  br label %52

48:                                               ; preds = %21
  br label %49

49:                                               ; preds = %48
  %50 = load i32, ptr %5, align 4, !tbaa !28
  %51 = add nsw i32 %50, -1
  store i32 %51, ptr %5, align 4, !tbaa !28
  br label %17, !llvm.loop !58

52:                                               ; preds = %42, %36, %20
  call void @llvm.lifetime.end.p0(i64 4, ptr %5) #28
  %53 = load i32, ptr %6, align 4
  switch i32 %53, label %55 [
    i32 2, label %54
  ]

54:                                               ; preds = %52
  store i64 1, ptr %2, align 8
  store i32 1, ptr %6, align 4
  br label %55

55:                                               ; preds = %54, %52
  call void @llvm.lifetime.end.p0(i64 8, ptr %4) #28
  %56 = load i64, ptr %2, align 8
  ret i64 %56
}