; Function Attrs: mustprogress ssp uwtable
define noundef range(i64 1, -9223372036854775807) i64 @_ZN6open3d4core10TensorList18ComputeReserveSizeEl(i64 noundef %0) local_unnamed_addr #0 align 2 {
  %2 = alloca i64, align 8
  store i64 %0, ptr %2, align 8, !tbaa !12
  %3 = icmp slt i64 %0, 0
  br i1 %3, label %4, label %5

4:                                                ; preds = %1
  call void @_ZN6open3d7utility6Logger9LogError_IJRlEEEvPKciS5_S5_DpOT_(ptr noundef nonnull @.str, i32 noundef 158, ptr noundef nonnull @__PRETTY_FUNCTION__._ZN6open3d4core10TensorList18ComputeReserveSizeEl, ptr noundef nonnull @.str.59, ptr noundef nonnull align 8 dereferenceable(8) %2) #30
  unreachable

5:                                                ; preds = %1
  %6 = icmp samesign ugt i64 %0, 2305843009213693952
  br i1 %6, label %7, label %.preheader

7:                                                ; preds = %5
  call void @_ZN6open3d7utility6Logger9LogError_IJRlEEEvPKciS5_S5_DpOT_(ptr noundef nonnull @.str, i32 noundef 163, ptr noundef nonnull @__PRETTY_FUNCTION__._ZN6open3d4core10TensorList18ComputeReserveSizeEl, ptr noundef nonnull @.str.60, ptr noundef nonnull align 8 dereferenceable(8) %2) #30
  unreachable

.preheader:                                       ; preds = %5, %22
  %.01317 = phi i32 [ %23, %22 ], [ 63, %5 ]
  %8 = zext nneg i32 %.01317 to i64
  %9 = shl nuw i64 1, %8
  %10 = and i64 %9, %0
  %11 = icmp sgt i64 %10, 0
  br i1 %11, label %12, label %22

12:                                               ; preds = %.preheader
  %13 = icmp eq i64 %0, %9
  br i1 %13, label %14, label %18

14:                                               ; preds = %12
  %15 = add nuw nsw i32 %.01317, 1
  %16 = zext nneg i32 %15 to i64
  %17 = shl nuw i64 1, %16
  br label %.loopexit

18:                                               ; preds = %12
  %19 = add nuw nsw i32 %.01317, 2
  %20 = zext nneg i32 %19 to i64
  %21 = shl nuw i64 1, %20
  br label %.loopexit

22:                                               ; preds = %.preheader
  %23 = add nsw i32 %.01317, -1
  %24 = icmp eq i32 %.01317, 0
  br i1 %24, label %.loopexit, label %.preheader, !llvm.loop !14

.loopexit:                                        ; preds = %22, %18, %14
  %spec.select = phi i64 [ %17, %14 ], [ %21, %18 ], [ 1, %22 ]
  ret i64 %spec.select
}